target datalayout = "e-m:e-p270:32:32-p271:32:32-p272:64:64-i64:64-i128:128-f80:128-n8:16:32:64-S128"
target triple = "x86_64-unknown-linux-gnu"

%struct.VirtIODevice = type { %struct.DeviceState, ptr, i8, i8, i16, i64, i64, i64, i64, ptr, i16, i32, i32, ptr, %struct.MemoryListener, i16, i8, i8, i8, i8, i8, i8, i8, i8, i8, ptr, ptr, i8, i8, ptr, ptr, %union.anon.1, %struct.EventNotifier, i8 }
%struct.DeviceState = type { %struct.Object, ptr, ptr, i8, i8, i64, ptr, i32, i8, ptr, %struct.NamedGPIOListHead, %struct.NamedClockListHead, %struct.BusStateHead, i32, i32, i32, %struct.ResettableState, ptr, %struct.MemReentrancyGuard }
%struct.Object = type { ptr, ptr, ptr, i32, ptr }
%struct.NamedGPIOListHead = type { ptr }
%struct.NamedClockListHead = type { ptr }
%struct.BusStateHead = type { ptr }
%struct.ResettableState = type { i32, i8, i8 }
%struct.MemReentrancyGuard = type { i8 }
%struct.MemoryListener = type { ptr, ptr, ptr, ptr, ptr, ptr, ptr, ptr, ptr, ptr, ptr, ptr, ptr, ptr, ptr, ptr, ptr, i32, ptr, ptr, %union.anon, %union.anon.0 }
%union.anon = type { %struct.QTailQLink }
%struct.QTailQLink = type { ptr, ptr }
%union.anon.0 = type { %struct.QTailQLink }
%union.anon.1 = type { %struct.QTailQLink }
%struct.EventNotifier = type { i32, i32, i8 }
%struct.VirtQueue = type { %struct.VRing, ptr, i16, i8, i16, i8, i16, i8, i16, i8, i8, i16, i32, i16, ptr, ptr, %struct.EventNotifier, %struct.EventNotifier, i8, %struct.anon }
%struct.VRing = type { i32, i32, i32, i64, i64, i64, ptr }
%struct.anon = type { ptr, ptr }
%struct.VirtioBusClass = type { %struct.BusClass, ptr, ptr, ptr, ptr, ptr, ptr, ptr, ptr, ptr, ptr, ptr, ptr, ptr, ptr, ptr, ptr, ptr, ptr, ptr, ptr, i8, ptr, ptr }
%struct.BusClass = type { %struct.ObjectClass, ptr, ptr, ptr, ptr, ptr, ptr, ptr, i32, i32 }
%struct.ObjectClass = type { ptr, ptr, [4 x ptr], [4 x ptr], ptr, ptr }
%struct.BusState = type { %struct.Object, ptr, ptr, ptr, i32, i8, i8, i32, %union.BusChildHead, %struct.BusStateEntry, %struct.ResettableState }
%union.BusChildHead = type { %struct.QTailQLink }
%struct.BusStateEntry = type { ptr, ptr }

@.str.42 = private unnamed_addr constant [27 x i8] c"../qemu/hw/virtio/virtio.c\00", align 1
@__func__.virtio_init = private unnamed_addr constant [12 x i8] c"virtio_init\00", align 1
@.str.96 = private unnamed_addr constant [7 x i8] c"device\00", align 1
@.str.97 = private unnamed_addr constant [101 x i8] c"/home/dtcxzyw/WorkSpace/Projects/compilers/llvm-opt-benchmark/bench/qemu/qemu/include/hw/qdev-core.h\00", align 1
@__func__.DEVICE = private unnamed_addr constant [7 x i8] c"DEVICE\00", align 1
@.str.98 = private unnamed_addr constant [11 x i8] c"virtio-bus\00", align 1
@.str.99 = private unnamed_addr constant [109 x i8] c"/home/dtcxzyw/WorkSpace/Projects/compilers/llvm-opt-benchmark/bench/qemu/qemu/include/hw/virtio/virtio-bus.h\00", align 1
@__func__.VIRTIO_BUS_GET_CLASS = private unnamed_addr constant [21 x i8] c"VIRTIO_BUS_GET_CLASS\00", align 1
@.str.152 = private unnamed_addr constant [46 x i8] c"device_id < G_N_ELEMENTS(virtio_device_names)\00", align 1
@__PRETTY_FUNCTION__.virtio_id_to_name = private unnamed_addr constant [40 x i8] c"const char *virtio_id_to_name(uint16_t)\00", align 1
@.str.153 = private unnamed_addr constant [13 x i8] c"name != NULL\00", align 1

; Function Attrs: nounwind sspstrong uwtable
define internal i32 @virtio_default_endian() #0 {
entry:
  %retval = alloca i32, align 4
  %call = call zeroext i1 @target_words_bigendian()
  br i1 %call, label %if.then, label %if.else

if.then:                                          ; preds = %entry
  store i32 2, ptr %retval, align 4
  br label %return

if.else:                                          ; preds = %entry
  store i32 1, ptr %retval, align 4
  br label %return

return:                                           ; preds = %if.else, %if.then
  %0 = load i32, ptr %retval, align 4
  ret i32 %0
}

; Function Attrs: nounwind sspstrong uwtable
define internal ptr @virtio_id_to_name(i16 noundef zeroext %device_id) #0 {
entry:
  %device_id.addr = alloca i16, align 2
  %name = alloca ptr, align 8
  store i16 %device_id, ptr %device_id.addr, align 2
  %0 = load i16, ptr %device_id.addr, align 2
  %conv = zext i16 %0 to i64
  %cmp = icmp ult i64 %conv, 42
  br i1 %cmp, label %if.then, label %if.else

if.then:                                          ; preds = %entry
  br label %if.end

if.else:                                          ; preds = %entry
  call void @__assert_fail(ptr noundef @.str.152, ptr noundef @.str.42, i32 noundef 201, ptr noundef @__PRETTY_FUNCTION__.virtio_id_to_name) #13
  unreachable

if.end:                                           ; preds = %if.then
  %1 = load i16, ptr %device_id.addr, align 2
  %idxprom = zext i16 %1 to i64
  %arrayidx = getelementptr [42 x ptr], ptr @virtio_device_names, i64 0, i64 %idxprom
  %2 = load ptr, ptr %arrayidx, align 8
  store ptr %2, ptr %name, align 8
  %3 = load ptr, ptr %name, align 8
  %cmp2 = icmp ne ptr %3, null
  br i1 %cmp2, label %if.then4, label %if.else5

if.then4:                                         ; preds = %if.end
  br label %if.end6

if.else5:                                         ; preds = %if.end
  call void @__assert_fail(ptr noundef @.str.153, ptr noundef @.str.42, i32 noundef 203, ptr noundef @__PRETTY_FUNCTION__.virtio_id_to_name) #13
  unreachable

if.end6:                                          ; preds = %if.then4
  %4 = load ptr, ptr %name, align 8
  ret ptr %4
}

; Function Attrs: nounwind sspstrong uwtable
define internal ptr @VIRTIO_BUS_GET_CLASS(ptr noundef %obj) #0 {
entry:
  %obj.addr = alloca ptr, align 8
  store ptr %obj, ptr %obj.addr, align 8
  %0 = load ptr, ptr %obj.addr, align 8
  %call = call ptr @object_get_class(ptr noundef %0)
  %call1 = call ptr @object_class_dynamic_cast_assert(ptr noundef %call, ptr noundef @.str.98, ptr noundef @.str.99, i32 noundef 36, ptr noundef @__func__.VIRTIO_BUS_GET_CLASS)
  ret ptr %call1
}

; Function Attrs: nounwind sspstrong uwtable
define internal ptr @DEVICE(ptr noundef %obj) #0 {
entry:
  %obj.addr = alloca ptr, align 8
  store ptr %obj, ptr %obj.addr, align 8
  %0 = load ptr, ptr %obj.addr, align 8
  %call = call ptr @object_dynamic_cast_assert(ptr noundef %0, ptr noundef @.str.96, ptr noundef @.str.97, i32 noundef 77, ptr noundef @__func__.DEVICE)
  ret ptr %call
}

; Function Attrs: nounwind sspstrong uwtable
define dso_local void @virtio_init(ptr noundef %vdev, i16 noundef zeroext %device_id, i64 noundef %config_size) #0 {
entry:
  %vdev.addr = alloca ptr, align 8
  %device_id.addr = alloca i16, align 2
  %config_size.addr = alloca i64, align 8
  %qbus = alloca ptr, align 8
  %k = alloca ptr, align 8
  %i = alloca i32, align 4
  %nvectors = alloca i32, align 4
  %.atomictmp = alloca i8, align 1
  store ptr %vdev, ptr %vdev.addr, align 8
  store i16 %device_id, ptr %device_id.addr, align 2
  store i64 %config_size, ptr %config_size.addr, align 8
  %0 = load ptr, ptr %vdev.addr, align 8
  %call = call ptr @DEVICE(ptr noundef %0)
  %call1 = call ptr @qdev_get_parent_bus(ptr noundef %call)
  store ptr %call1, ptr %qbus, align 8
  %1 = load ptr, ptr %qbus, align 8
  %call2 = call ptr @VIRTIO_BUS_GET_CLASS(ptr noundef %1)
  store ptr %call2, ptr %k, align 8
  %2 = load ptr, ptr %k, align 8
  %query_nvectors = getelementptr inbounds %struct.VirtioBusClass, ptr %2, i32 0, i32 17
  %3 = load ptr, ptr %query_nvectors, align 8
  %tobool = icmp ne ptr %3, null
  br i1 %tobool, label %cond.true, label %cond.false

cond.true:                                        ; preds = %entry
  %4 = load ptr, ptr %k, align 8
  %query_nvectors3 = getelementptr inbounds %struct.VirtioBusClass, ptr %4, i32 0, i32 17
  %5 = load ptr, ptr %query_nvectors3, align 8
  %6 = load ptr, ptr %qbus, align 8
  %parent = getelementptr inbounds %struct.BusState, ptr %6, i32 0, i32 1
  %7 = load ptr, ptr %parent, align 8
  %call4 = call i32 %5(ptr noundef %7)
  br label %cond.end

cond.false:                                       ; preds = %entry
  br label %cond.end

cond.end:                                         ; preds = %cond.false, %cond.true
  %cond = phi i32 [ %call4, %cond.true ], [ 0, %cond.false ]
  store i32 %cond, ptr %nvectors, align 4
  %8 = load i32, ptr %nvectors, align 4
  %tobool5 = icmp ne i32 %8, 0
  br i1 %tobool5, label %if.then, label %if.end

if.then:                                          ; preds = %cond.end
  %9 = load i32, ptr %nvectors, align 4
  %conv = sext i32 %9 to i64
  %mul = mul i64 8, %conv
  %call6 = call noalias ptr @g_malloc0(i64 noundef %mul) #15
  %10 = load ptr, ptr %vdev.addr, align 8
  %vector_queues = getelementptr inbounds %struct.VirtIODevice, ptr %10, i32 0, i32 30
  store ptr %call6, ptr %vector_queues, align 8
  br label %if.end

if.end:                                           ; preds = %if.then, %cond.end
  %11 = load ptr, ptr %vdev.addr, align 8
  %start_on_kick = getelementptr inbounds %struct.VirtIODevice, ptr %11, i32 0, i32 22
  store i8 0, ptr %start_on_kick, align 8
  %12 = load ptr, ptr %vdev.addr, align 8
  %started = getelementptr inbounds %struct.VirtIODevice, ptr %12, i32 0, i32 21
  store i8 0, ptr %started, align 1
  %13 = load ptr, ptr %vdev.addr, align 8
  %vhost_started = getelementptr inbounds %struct.VirtIODevice, ptr %13, i32 0, i32 24
  store i8 0, ptr %vhost_started, align 2
  %14 = load i16, ptr %device_id.addr, align 2
  %15 = load ptr, ptr %vdev.addr, align 8
  %device_id7 = getelementptr inbounds %struct.VirtIODevice, ptr %15, i32 0, i32 15
  store i16 %14, ptr %device_id7, align 8
  %16 = load ptr, ptr %vdev.addr, align 8
  %status = getelementptr inbounds %struct.VirtIODevice, ptr %16, i32 0, i32 2
  store i8 0, ptr %status, align 8
  br label %do.body

do.body:                                          ; preds = %if.end
  br label %while.cond

while.cond:                                       ; preds = %do.end, %do.body
  br i1 false, label %while.body, label %while.end

while.body:                                       ; preds = %while.cond
  br label %do.body8

do.body8:                                         ; preds = %while.body
  call void @g_assertion_message_expr(ptr noundef null, ptr noundef @.str.42, i32 noundef 3234, ptr noundef @__func__.virtio_init, ptr noundef null) #12
  unreachable

do.end:                                           ; No predecessors!
  br label %while.cond

while.end:                                        ; preds = %while.cond
  %17 = load ptr, ptr %vdev.addr, align 8
  %isr = getelementptr inbounds %struct.VirtIODevice, ptr %17, i32 0, i32 3
  store i8 0, ptr %.atomictmp, align 1
  %18 = load i8, ptr %.atomictmp, align 1
  store atomic i8 %18, ptr %isr monotonic, align 1
  br label %do.end9

do.end9:                                          ; preds = %while.end
  %19 = load ptr, ptr %vdev.addr, align 8
  %queue_sel = getelementptr inbounds %struct.VirtIODevice, ptr %19, i32 0, i32 4
  store i16 0, ptr %queue_sel, align 2
  %20 = load ptr, ptr %vdev.addr, align 8
  %config_vector = getelementptr inbounds %struct.VirtIODevice, ptr %20, i32 0, i32 10
  store i16 -1, ptr %config_vector, align 8
  %call10 = call noalias ptr @g_malloc0_n(i64 noundef 1024, i64 noundef 152) #11
  %21 = load ptr, ptr %vdev.addr, align 8
  %vq = getelementptr inbounds %struct.VirtIODevice, ptr %21, i32 0, i32 13
  store ptr %call10, ptr %vq, align 8
  %call11 = call zeroext i1 @runstate_is_running()
  %22 = load ptr, ptr %vdev.addr, align 8
  %vm_running = getelementptr inbounds %struct.VirtIODevice, ptr %22, i32 0, i32 16
  %frombool = zext i1 %call11 to i8
  store i8 %frombool, ptr %vm_running, align 2
  %23 = load ptr, ptr %vdev.addr, align 8
  %broken = getelementptr inbounds %struct.VirtIODevice, ptr %23, i32 0, i32 17
  store i8 0, ptr %broken, align 1
  store i32 0, ptr %i, align 4
  br label %for.cond

for.cond:                                         ; preds = %for.inc, %do.end9
  %24 = load i32, ptr %i, align 4
  %cmp = icmp slt i32 %24, 1024
  br i1 %cmp, label %for.body, label %for.end

for.body:                                         ; preds = %for.cond
  %25 = load ptr, ptr %vdev.addr, align 8
  %vq13 = getelementptr inbounds %struct.VirtIODevice, ptr %25, i32 0, i32 13
  %26 = load ptr, ptr %vq13, align 8
  %27 = load i32, ptr %i, align 4
  %idxprom = sext i32 %27 to i64
  %arrayidx = getelementptr %struct.VirtQueue, ptr %26, i64 %idxprom
  %vector = getelementptr inbounds %struct.VirtQueue, ptr %arrayidx, i32 0, i32 13
  store i16 -1, ptr %vector, align 8
  %28 = load ptr, ptr %vdev.addr, align 8
  %29 = load ptr, ptr %vdev.addr, align 8
  %vq14 = getelementptr inbounds %struct.VirtIODevice, ptr %29, i32 0, i32 13
  %30 = load ptr, ptr %vq14, align 8
  %31 = load i32, ptr %i, align 4
  %idxprom15 = sext i32 %31 to i64
  %arrayidx16 = getelementptr %struct.VirtQueue, ptr %30, i64 %idxprom15
  %vdev17 = getelementptr inbounds %struct.VirtQueue, ptr %arrayidx16, i32 0, i32 15
  store ptr %28, ptr %vdev17, align 8
  %32 = load i32, ptr %i, align 4
  %conv18 = trunc i32 %32 to i16
  %33 = load ptr, ptr %vdev.addr, align 8
  %vq19 = getelementptr inbounds %struct.VirtIODevice, ptr %33, i32 0, i32 13
  %34 = load ptr, ptr %vq19, align 8
  %35 = load i32, ptr %i, align 4
  %idxprom20 = sext i32 %35 to i64
  %arrayidx21 = getelementptr %struct.VirtQueue, ptr %34, i64 %idxprom20
  %queue_index = getelementptr inbounds %struct.VirtQueue, ptr %arrayidx21, i32 0, i32 11
  store i16 %conv18, ptr %queue_index, align 8
  %36 = load ptr, ptr %vdev.addr, align 8
  %vq22 = getelementptr inbounds %struct.VirtIODevice, ptr %36, i32 0, i32 13
  %37 = load ptr, ptr %vq22, align 8
  %38 = load i32, ptr %i, align 4
  %idxprom23 = sext i32 %38 to i64
  %arrayidx24 = getelementptr %struct.VirtQueue, ptr %37, i64 %idxprom23
  %host_notifier_enabled = getelementptr inbounds %struct.VirtQueue, ptr %arrayidx24, i32 0, i32 18
  store i8 0, ptr %host_notifier_enabled, align 8
  br label %for.inc

for.inc:                                          ; preds = %for.body
  %39 = load i32, ptr %i, align 4
  %inc = add i32 %39, 1
  store i32 %inc, ptr %i, align 4
  br label %for.cond, !llvm.loop !49

for.end:                                          ; preds = %for.cond
  %40 = load i16, ptr %device_id.addr, align 2
  %call25 = call ptr @virtio_id_to_name(i16 noundef zeroext %40)
  %41 = load ptr, ptr %vdev.addr, align 8
  %name = getelementptr inbounds %struct.VirtIODevice, ptr %41, i32 0, i32 1
  store ptr %call25, ptr %name, align 8
  %42 = load i64, ptr %config_size.addr, align 8
  %43 = load ptr, ptr %vdev.addr, align 8
  %config_len = getelementptr inbounds %struct.VirtIODevice, ptr %43, i32 0, i32 8
  store i64 %42, ptr %config_len, align 8
  %44 = load ptr, ptr %vdev.addr, align 8
  %config_len26 = getelementptr inbounds %struct.VirtIODevice, ptr %44, i32 0, i32 8
  %45 = load i64, ptr %config_len26, align 8
  %tobool27 = icmp ne i64 %45, 0
  br i1 %tobool27, label %if.then28, label %if.else

if.then28:                                        ; preds = %for.end
  %46 = load i64, ptr %config_size.addr, align 8
  %call29 = call noalias ptr @g_malloc0(i64 noundef %46) #15
  %47 = load ptr, ptr %vdev.addr, align 8
  %config = getelementptr inbounds %struct.VirtIODevice, ptr %47, i32 0, i32 9
  store ptr %call29, ptr %config, align 8
  br label %if.end31

if.else:                                          ; preds = %for.end
  %48 = load ptr, ptr %vdev.addr, align 8
  %config30 = getelementptr inbounds %struct.VirtIODevice, ptr %48, i32 0, i32 9
  store ptr null, ptr %config30, align 8
  br label %if.end31

if.end31:                                         ; preds = %if.else, %if.then28
  %49 = load ptr, ptr %vdev.addr, align 8
  %call32 = call ptr @DEVICE(ptr noundef %49)
  %50 = load ptr, ptr %vdev.addr, align 8
  %call33 = call ptr @qdev_add_vm_change_state_handler(ptr noundef %call32, ptr noundef @virtio_vmstate_change, ptr noundef %50)
  %51 = load ptr, ptr %vdev.addr, align 8
  %vmstate = getelementptr inbounds %struct.VirtIODevice, ptr %51, i32 0, i32 25
  store ptr %call33, ptr %vmstate, align 8
  %call34 = call i32 @virtio_default_endian()
  %conv35 = trunc i32 %call34 to i8
  %52 = load ptr, ptr %vdev.addr, align 8
  %device_endian = getelementptr inbounds %struct.VirtIODevice, ptr %52, i32 0, i32 27
  store i8 %conv35, ptr %device_endian, align 8
  %53 = load ptr, ptr %vdev.addr, align 8
  %use_guest_notifier_mask = getelementptr inbounds %struct.VirtIODevice, ptr %53, i32 0, i32 28
  store i8 1, ptr %use_guest_notifier_mask, align 1
  ret void
}