; Function Attrs: nounwind sspstrong uwtable
define dso_local void @virtio_init(ptr noundef %vdev, i16 noundef zeroext %device_id, i64 noundef %config_size) local_unnamed_addr #0 {
entry:
  %call.i = tail call ptr @object_dynamic_cast_assert(ptr noundef %vdev, ptr noundef nonnull @.str.96, ptr noundef nonnull @.str.97, i32 noundef 77, ptr noundef nonnull @__func__.DEVICE) #23
  %call1 = tail call ptr @qdev_get_parent_bus(ptr noundef %call.i) #23
  %call.i39 = tail call ptr @object_get_class(ptr noundef %call1) #23
  %call1.i = tail call ptr @object_class_dynamic_cast_assert(ptr noundef %call.i39, ptr noundef nonnull @.str.98, ptr noundef nonnull @.str.99, i32 noundef 36, ptr noundef nonnull @__func__.VIRTIO_BUS_GET_CLASS) #23
  %query_nvectors = getelementptr inbounds nuw i8, ptr %call1.i, i64 288
  %0 = load ptr, ptr %query_nvectors, align 8
  %tobool.not = icmp eq ptr %0, null
  br i1 %tobool.not, label %if.end, label %cond.end

cond.end:                                         ; preds = %entry
  %parent = getelementptr inbounds nuw i8, ptr %call1, i64 40
  %1 = load ptr, ptr %parent, align 8
  %call4 = tail call i32 %0(ptr noundef %1) #23
  %tobool5.not = icmp eq i32 %call4, 0
  br i1 %tobool5.not, label %if.end, label %if.then

if.then:                                          ; preds = %cond.end
  %conv = sext i32 %call4 to i64
  %mul = shl nsw i64 %conv, 3
  %call6 = tail call noalias ptr @g_malloc0(i64 noundef %mul) #26
  %vector_queues = getelementptr inbounds nuw i8, ptr %vdev, i64 480
  store ptr %call6, ptr %vector_queues, align 8
  br label %if.end

if.end:                                           ; preds = %entry, %if.then, %cond.end
  %start_on_kick = getelementptr inbounds nuw i8, ptr %vdev, i64 440
  store i8 0, ptr %start_on_kick, align 8
  %started = getelementptr inbounds nuw i8, ptr %vdev, i64 439
  store i8 0, ptr %started, align 1
  %vhost_started = getelementptr inbounds nuw i8, ptr %vdev, i64 442
  store i8 0, ptr %vhost_started, align 2
  %device_id7 = getelementptr inbounds nuw i8, ptr %vdev, i64 432
  store i16 %device_id, ptr %device_id7, align 8
  %status = getelementptr inbounds nuw i8, ptr %vdev, i64 168
  store i8 0, ptr %status, align 8
  %isr = getelementptr inbounds nuw i8, ptr %vdev, i64 169
  store atomic i8 0, ptr %isr monotonic, align 1
  %queue_sel = getelementptr inbounds nuw i8, ptr %vdev, i64 170
  store i16 0, ptr %queue_sel, align 2
  %config_vector = getelementptr inbounds nuw i8, ptr %vdev, i64 216
  store i16 -1, ptr %config_vector, align 8
  %call10 = tail call noalias dereferenceable_or_null(155648) ptr @g_malloc0_n(i64 noundef 1024, i64 noundef 152) #22
  %vq = getelementptr inbounds nuw i8, ptr %vdev, i64 232
  store ptr %call10, ptr %vq, align 8
  %call11 = tail call zeroext i1 @runstate_is_running() #23
  %vm_running = getelementptr inbounds nuw i8, ptr %vdev, i64 434
  %frombool = zext i1 %call11 to i8
  store i8 %frombool, ptr %vm_running, align 2
  %broken = getelementptr inbounds nuw i8, ptr %vdev, i64 435
  store i8 0, ptr %broken, align 1
  br label %for.body

for.body:                                         ; preds = %if.end, %for.body
  %indvars.iv = phi i64 [ 0, %if.end ], [ %indvars.iv.next, %for.body ]
  %2 = load ptr, ptr %vq, align 8
  %vector = getelementptr %struct.VirtQueue, ptr %2, i64 %indvars.iv, i32 13
  store i16 -1, ptr %vector, align 8
  %3 = load ptr, ptr %vq, align 8
  %vdev17 = getelementptr %struct.VirtQueue, ptr %3, i64 %indvars.iv, i32 15
  store ptr %vdev, ptr %vdev17, align 8
  %conv18 = trunc i64 %indvars.iv to i16
  %4 = load ptr, ptr %vq, align 8
  %queue_index = getelementptr %struct.VirtQueue, ptr %4, i64 %indvars.iv, i32 11
  store i16 %conv18, ptr %queue_index, align 8
  %5 = load ptr, ptr %vq, align 8
  %host_notifier_enabled = getelementptr %struct.VirtQueue, ptr %5, i64 %indvars.iv, i32 18
  store i8 0, ptr %host_notifier_enabled, align 8
  %indvars.iv.next = add nuw nsw i64 %indvars.iv, 1
  %exitcond.not = icmp eq i64 %indvars.iv.next, 1024
  br i1 %exitcond.not, label %for.end, label %for.body, !llvm.loop !51

for.end:                                          ; preds = %for.body
  %cmp.i = icmp ult i16 %device_id, 42
  br i1 %cmp.i, label %if.end.i, label %if.else.i

if.else.i:                                        ; preds = %for.end
  tail call void @__assert_fail(ptr noundef nonnull @.str.152, ptr noundef nonnull @.str.42, i32 noundef 201, ptr noundef nonnull @__PRETTY_FUNCTION__.virtio_id_to_name) #24
  unreachable

if.end.i:                                         ; preds = %for.end
  %conv.i = zext nneg i16 %device_id to i64
  %arrayidx.i = getelementptr [42 x ptr], ptr @virtio_device_names, i64 0, i64 %conv.i
  %6 = load ptr, ptr %arrayidx.i, align 8
  %cmp2.not.i = icmp eq ptr %6, null
  br i1 %cmp2.not.i, label %if.else5.i, label %virtio_id_to_name.exit

if.else5.i:                                       ; preds = %if.end.i
  tail call void @__assert_fail(ptr noundef nonnull @.str.153, ptr noundef nonnull @.str.42, i32 noundef 203, ptr noundef nonnull @__PRETTY_FUNCTION__.virtio_id_to_name) #24
  unreachable

virtio_id_to_name.exit:                           ; preds = %if.end.i
  %name = getelementptr inbounds nuw i8, ptr %vdev, i64 160
  store ptr %6, ptr %name, align 8
  %config_len = getelementptr inbounds nuw i8, ptr %vdev, i64 200
  store i64 %config_size, ptr %config_len, align 8
  %tobool27.not = icmp eq i64 %config_size, 0
  br i1 %tobool27.not, label %if.end31, label %if.then28

if.then28:                                        ; preds = %virtio_id_to_name.exit
  %call29 = tail call noalias ptr @g_malloc0(i64 noundef %config_size) #26
  br label %if.end31

if.end31:                                         ; preds = %virtio_id_to_name.exit, %if.then28
  %call29.sink = phi ptr [ %call29, %if.then28 ], [ null, %virtio_id_to_name.exit ]
  %7 = getelementptr inbounds nuw i8, ptr %vdev, i64 208
  store ptr %call29.sink, ptr %7, align 8
  %call.i40 = tail call ptr @object_dynamic_cast_assert(ptr noundef nonnull %vdev, ptr noundef nonnull @.str.96, ptr noundef nonnull @.str.97, i32 noundef 77, ptr noundef nonnull @__func__.DEVICE) #23
  %call33 = tail call ptr @qdev_add_vm_change_state_handler(ptr noundef %call.i40, ptr noundef nonnull @virtio_vmstate_change, ptr noundef nonnull %vdev) #23
  %vmstate = getelementptr inbounds nuw i8, ptr %vdev, i64 448
  store ptr %call33, ptr %vmstate, align 8
  %call.i41 = tail call zeroext i1 @target_words_bigendian() #23
  %conv35 = select i1 %call.i41, i8 2, i8 1
  %device_endian = getelementptr inbounds nuw i8, ptr %vdev, i64 464
  store i8 %conv35, ptr %device_endian, align 8
  %use_guest_notifier_mask = getelementptr inbounds nuw i8, ptr %vdev, i64 465
  store i8 1, ptr %use_guest_notifier_mask, align 1
  ret void
}